; Function Attrs: mustprogress nounwind uwtable
define void @_ZN6icu_7518KeywordEnumerationD2Ev(ptr noundef nonnull align 8 dereferenceable(208) %this) unnamed_addr #0 align 2 personality ptr @__gxx_personality_v0 {
entry:
  store ptr getelementptr inbounds ({ [13 x ptr] }, ptr @_ZTVN6icu_7518KeywordEnumerationE, i64 0, i32 0, i64 2), ptr %this, align 8
  %keywords = getelementptr inbounds i8, ptr %this, i64 120
  %0 = load ptr, ptr %keywords, align 8
  invoke void @uprv_free_75(ptr noundef %0)
          to label %invoke.cont unwind label %terminate.lpad

invoke.cont:                                      ; preds = %entry
  %currUSKey = getelementptr inbounds i8, ptr %this, i64 144
  tail call void @_ZN6icu_7513UnicodeStringD1Ev(ptr noundef nonnull align 8 dereferenceable(64) %currUSKey) #20
  tail call void @_ZN6icu_7517StringEnumerationD2Ev(ptr noundef nonnull align 8 dereferenceable(116) %this) #20
  ret void

terminate.lpad:                                   ; preds = %entry
  %1 = landingpad { ptr, i32 }
          catch ptr null
  %2 = extractvalue { ptr, i32 } %1, 0
  tail call void @__clang_call_terminate(ptr %2) #22
  unreachable
}